; Function Attrs: nounwind uwtable
define internal fastcc noundef zeroext i1 @print_exception_seen_lookup(ptr noundef nonnull readonly captures(none) %0, ptr noundef nonnull %1) unnamed_addr #0 {
  %3 = tail call ptr @PyLong_FromVoidPtr(ptr noundef nonnull %1) #8
  %4 = icmp eq ptr %3, null
  br i1 %4, label %5, label %6

5:                                                ; preds = %2
  tail call void @PyErr_Clear() #8
  br label %17

6:                                                ; preds = %2
  %7 = getelementptr inbounds nuw i8, ptr %0, i64 8
  %8 = load ptr, ptr %7, align 8, !tbaa !198
  %9 = tail call i32 @PySet_Contains(ptr noundef %8, ptr noundef nonnull %3) #8
  %10 = load i32, ptr %3, align 8, !tbaa !9
  %.not.i = icmp sgt i32 %10, -1
  br i1 %.not.i, label %11, label %Py_DECREF.exit

11:                                               ; preds = %6
  %12 = add nsw i32 %10, -1
  store i32 %12, ptr %3, align 8, !tbaa !9
  %13 = icmp eq i32 %12, 0
  br i1 %13, label %14, label %Py_DECREF.exit

14:                                               ; preds = %11
  tail call void @_Py_Dealloc(ptr noundef nonnull %3) #8
  br label %Py_DECREF.exit

Py_DECREF.exit:                                   ; preds = %6, %11, %14
  switch i32 %9, label %16 [
    i32 -1, label %15
    i32 1, label %17
  ]

15:                                               ; preds = %Py_DECREF.exit
  tail call void @PyErr_Clear() #8
  br label %17

16:                                               ; preds = %Py_DECREF.exit
  br label %17

17:                                               ; preds = %15, %16, %Py_DECREF.exit, %5
  %.0 = phi i1 [ true, %5 ], [ true, %15 ], [ false, %16 ], [ true, %Py_DECREF.exit ]
  ret i1 %.0
}